(lp0
(lp1
I1
aI13
aI3075
aI10137
aa(lp2
I2
aI13
aI3075
aI3085
aa(lp3
I3
aI13
aI3133
aI15331
aa(lp4
I4
aI13
aI3133
aI7756
aa(lp5
I5
aI13
aI3133
aI15331
aa(lp6
I6
aI13
aI3133
aI7756
aa(lp7
I7
aI13
aI7756
aI7752
aa(lp8
I8
aI13
aI3085
aI14593
aa(lp9
I9
aI13
aI3085
aI10777
aa(lp10
I10
aI13
aI3085
aI3075
aa(lp11
I11
aI13
aI3085
aI14593
aa(lp12
I12
aI13
aI3085
aI10777
aa(lp13
I13
aI13
aI3085
aI3075
aa(lp14
I14
aI13
aI3423
aI16925
aa(lp15
I15
aI13
aI3423
aI15653
aa(lp16
I16
aI13
aI3423
aI3433
aa(lp17
I17
aI13
aI3423
aI16925
aa(lp18
I18
aI13
aI3423
aI15653
aa(lp19
I19
aI13
aI3423
aI3433
aa(lp20
I20
aI13
aI15653
aI15649
aa(lp21
I21
aI13
aI3433
aI19359
aa(lp22
I22
aI13
aI3433
aI7809
aa(lp23
I23
aI13
aI3433
aI3423
aa(lp24
I24
aI13
aI19359
aI19363
aa(lp25
I25
aI13
aI3433
aI19359
aa(lp26
I26
aI13
aI3433
aI7809
aa(lp27
I27
aI13
aI3433
aI3423
aa(lp28
I28
aI13
aI2737
aI18197
aa(lp29
I29
aI13
aI2737
aI11515
aa(lp30
I30
aI13
aI2737
aI2727
aa(lp31
I31
aI13
aI2737
aI18197
aa(lp32
I32
aI13
aI2737
aI11515
aa(lp33
I33
aI13
aI2737
aI2727
aa(lp34
I34
aI13
aI11515
aI11519
aa(lp35
I35
aI13
aI417
aI10353
aa(lp36
I36
aI13
aI417
aI6378
aa(lp37
I37
aI13
aI417
aI407
aa(lp38
I38
aI13
aI417
aI10353
aa(lp39
I39
aI13
aI417
aI6378
aa(lp40
I40
aI13
aI417
aI407
aa(lp41
I41
aI13
aI175
aI19469
aa(lp42
I42
aI13
aI175
aI20635
aa(lp43
I43
aI13
aI175
aI185
aa(lp44
I44
aI13
aI175
aI19469
aa(lp45
I45
aI13
aI175
aI20635
aa(lp46
I46
aI13
aI175
aI185
aa(lp47
I47
aI13
aI20635
aI20631
aa(lp48
I48
aI13
aI2302
aI15649
aa(lp49
I49
aI13
aI2302
aI17137
aa(lp50
I50
aI13
aI2302
aI2292
aa(lp51
I51
aI13
aI15649
aI15653
aa(lp52
I52
aI13
aI2302
aI15649
aa(lp53
I53
aI13
aI2302
aI17137
aa(lp54
I54
aI13
aI2302
aI2292
aa(lp55
I55
aI13
aI2814
aI20264
aa(lp56
I56
aI13
aI2814
aI10618
aa(lp57
I57
aI13
aI2814
aI20264
aa(lp58
I58
aI13
aI2814
aI10618
aa(lp59
I59
aI13
aI1519
aI6855
aa(lp60
I60
aI13
aI1519
aI6109
aa(lp61
I61
aI13
aI1519
aI1509
aa(lp62
I62
aI13
aI6855
aI6851
aa(lp63
I63
aI13
aI1519
aI6855
aa(lp64
I64
aI13
aI1519
aI6109
aa(lp65
I65
aI13
aI1519
aI1509
aa(lp66
I66
aI13
aI6109
aI6113
aa(lp67
I67
aI13
aI1538
aI19257
aa(lp68
I68
aI13
aI1538
aI16656
aa(lp69
I69
aI13
aI1538
aI1548
aa(lp70
I70
aI13
aI19257
aI19253
aa(lp71
I71
aI13
aI1538
aI19257
aa(lp72
I72
aI13
aI1538
aI16656
aa(lp73
I73
aI13
aI1538
aI1548
aa(lp74
I74
aI13
aI185
aI20419
aa(lp75
I75
aI13
aI185
aI175
aa(lp76
I76
aI13
aI1142
aI3940
aa(lp77
I77
aI13
aI1142
aI12999
aa(lp78
I78
aI13
aI1142
aI1132
aa(lp79
I79
aI13
aI3940
aI3936
aa(lp80
I80
aI13
aI1142
aI3940
aa(lp81
I81
aI13
aI1142
aI12999
aa(lp82
I82
aI13
aI1142
aI1132
aa(lp83
I83
aI13
aI12999
aI13003
aa(lp84
I84
aI13
aI2099
aI20631
aa(lp85
I85
aI13
aI2099
aI10561
aa(lp86
I86
aI13
aI2099
aI2089
aa(lp87
I87
aI13
aI20631
aI20635
aa(lp88
I88
aI13
aI2099
aI20631
aa(lp89
I89
aI13
aI2099
aI10561
aa(lp90
I90
aI13
aI2099
aI2089
aa(lp91
I91
aI13
aI10561
aI10565
aa(lp92
I92
aI13
aI3539
aI19094
aa(lp93
I93
aI13
aI3539
aI21267
aa(lp94
I94
aI13
aI3539
aI3549
aa(lp95
I95
aI13
aI19094
aI19098
aa(lp96
I96
aI13
aI3539
aI19094
aa(lp97
I97
aI13
aI3539
aI21267
aa(lp98
I98
aI13
aI3539
aI3549
aa(lp99
I99
aI13
aI21267
aI21271
aa(lp100
I100
aI13
aI1509
aI5265
aa(lp101
I101
aI13
aI1509
aI1519
aa(lp102
I102
aI13
aI407
aI6851
aa(lp103
I103
aI13
aI407
aI417
aa(lp104
I104
aI13
aI6851
aI6855
aa(lp105
I105
aI13
aI707
aI3936
aa(lp106
I106
aI13
aI707
aI9183
aa(lp107
I107
aI13
aI707
aI697
aa(lp108
I108
aI13
aI3936
aI3940
aa(lp109
I109
aI13
aI707
aI3936
aa(lp110
I110
aI13
aI707
aI9183
aa(lp111
I111
aI13
aI707
aI697
aa(lp112
I112
aI13
aI9183
aI9187
aa(lp113
I113
aI13
aI1548
aI11996
aa(lp114
I114
aI13
aI1548
aI14271
aa(lp115
I115
aI13
aI1548
aI1538
aa(lp116
I116
aI13
aI11996
aI11992
aa(lp117
I117
aI13
aI1548
aI11996
aa(lp118
I118
aI13
aI1548
aI14271
aa(lp119
I119
aI13
aI1548
aI1538
aa(lp120
I120
aI13
aI14271
aI14275
aa(lp121
I121
aI13
aI2089
aI12840
aa(lp122
I122
aI13
aI2089
aI21161
aa(lp123
I123
aI13
aI2089
aI2099
aa(lp124
I124
aI13
aI12840
aI12844
aa(lp125
I125
aI13
aI2089
aI12840
aa(lp126
I126
aI13
aI2089
aI21161
aa(lp127
I127
aI13
aI2089
aI2099
aa(lp128
I128
aI13
aI21161
aI21165
aa(lp129
I129
aI13
aI1132
aI13586
aa(lp130
I130
aI13
aI1132
aI19204
aa(lp131
I131
aI13
aI1132
aI1142
aa(lp132
I132
aI13
aI13586
aI13582
aa(lp133
I133
aI13
aI1132
aI13586
aa(lp134
I134
aI13
aI1132
aI19204
aa(lp135
I135
aI13
aI1132
aI1142
aa(lp136
I136
aI13
aI19204
aI19200
aa(lp137
I137
aI13
aI697
aI7752
aa(lp138
I138
aI13
aI697
aI10088
aa(lp139
I139
aI13
aI697
aI707
aa(lp140
I140
aI13
aI7752
aI7756
aa(lp141
I141
aI13
aI697
aI7752
aa(lp142
I142
aI13
aI697
aI10088
aa(lp143
I143
aI13
aI697
aI707
aa(lp144
I144
aI13
aI3549
aI6802
aa(lp145
I145
aI13
aI3549
aI20370
aa(lp146
I146
aI13
aI3549
aI3539
aa(lp147
I147
aI13
aI6802
aI6798
aa(lp148
I148
aI13
aI3549
aI6802
aa(lp149
I149
aI13
aI3549
aI20370
aa(lp150
I150
aI13
aI3549
aI3539
aa(lp151
I151
aI13
aI20370
aI20366
aa(lp152
I152
aI13
aI3394
aI6908
aa(lp153
I153
aI13
aI3394
aI5795
aa(lp154
I154
aI13
aI3394
aI3404
aa(lp155
I155
aI13
aI6908
aI6904
aa(lp156
I156
aI13
aI3394
aI6908
aa(lp157
I157
aI13
aI3394
aI5795
aa(lp158
I158
aI13
aI3394
aI3404
aa(lp159
I159
aI13
aI5795
aI5791
aa(lp160
I160
aI13
aI1393
aI21320
aa(lp161
I161
aI13
aI1393
aI1403
aa(lp162
I162
aI13
aI21320
aI21324
aa(lp163
I163
aI13
aI581
aI12844
aa(lp164
I164
aI13
aI581
aI21165
aa(lp165
I165
aI13
aI581
aI591
aa(lp166
I166
aI13
aI12844
aI12840
aa(lp167
I167
aI13
aI581
aI12844
aa(lp168
I168
aI13
aI581
aI21165
aa(lp169
I169
aI13
aI581
aI591
aa(lp170
I170
aI13
aI21165
aI21161
aa(lp171
I171
aI13
aI1403
aI10455
aa(lp172
I172
aI13
aI1403
aI13215
aa(lp173
I173
aI13
aI1403
aI1393
aa(lp174
I174
aI13
aI1403
aI10455
aa(lp175
I175
aI13
aI1403
aI13215
aa(lp176
I176
aI13
aI1403
aI1393
aa(lp177
I177
aI13
aI13215
aI13211
aa(lp178
I178
aI13
aI1364
aI5742
aa(lp179
I179
aI13
aI1364
aI5742
aa(lp180
I180
aI13
aI3404
aI20578
aa(lp181
I181
aI13
aI3404
aI3394
aa(lp182
I182
aI13
aI20578
aI20582
aa(lp183
I183
aI13
aI1625
aI8017
aa(lp184
I184
aI13
aI1625
aI1635
aa(lp185
I185
aI13
aI1635
aI21536
aa(lp186
I186
aI13
aI1635
aI6431
aa(lp187
I187
aI13
aI1635
aI1625
aa(lp188
I188
aI13
aI21536
aI21532
aa(lp189
I189
aI13
aI1635
aI21536
aa(lp190
I190
aI13
aI1635
aI6431
aa(lp191
I191
aI13
aI1635
aI1625
aa(lp192
I192
aI13
aI6431
aI6427
aa(lp193
I193
aI13
aI823
aI6427
aa(lp194
I194
aI13
aI823
aI9134
aa(lp195
I195
aI13
aI823
aI813
aa(lp196
I196
aI13
aI6427
aI6431
aa(lp197
I197
aI13
aI823
aI6427
aa(lp198
I198
aI13
aI823
aI9134
aa(lp199
I199
aI13
aI823
aI813
aa(lp200
I200
aI13
aI2582
aI7544
aa(lp201
I201
aI13
aI2582
aI9978
aa(lp202
I202
aI13
aI2582
aI2592
aa(lp203
I203
aI13
aI2582
aI7544
aa(lp204
I204
aI13
aI2582
aI9978
aa(lp205
I205
aI13
aI2582
aI2592
aa(lp206
I206
aI13
aI1770
aI6798
aa(lp207
I207
aI13
aI1770
aI1780
aa(lp208
I208
aI13
aI6798
aI6802
aa(lp209
I209
aI13
aI591
aI8657
aa(lp210
I210
aI13
aI591
aI10565
aa(lp211
I211
aI13
aI591
aI581
aa(lp212
I212
aI13
aI8657
aI8653
aa(lp213
I213
aI13
aI591
aI8657
aa(lp214
I214
aI13
aI591
aI10565
aa(lp215
I215
aI13
aI591
aI581
aa(lp216
I216
aI13
aI10565
aI10561
aa(lp217
I217
aI13
aI1422
aI15384
aa(lp218
I218
aI13
aI1422
aI18780
aa(lp219
I219
aI13
aI1422
aI1432
aa(lp220
I220
aI13
aI15384
aI15388
aa(lp221
I221
aI13
aI1422
aI15384
aa(lp222
I222
aI13
aI1422
aI18780
aa(lp223
I223
aI13
aI1422
aI1432
aa(lp224
I224
aI13
aI18780
aI18776
aa(lp225
I225
aI13
aI900
aI17504
aa(lp226
I226
aI13
aI900
aI910
aa(lp227
I227
aI13
aI17504
aI17508
aa(lp228
I228
aI13
aI3607
aI21532
aa(lp229
I229
aI13
aI3607
aI6166
aa(lp230
I230
aI13
aI3607
aI3597
aa(lp231
I231
aI13
aI21532
aI21536
aa(lp232
I232
aI13
aI3607
aI21532
aa(lp233
I233
aI13
aI3607
aI6166
aa(lp234
I234
aI13
aI3607
aI3597
aa(lp235
I235
aI13
aI6166
aI6162
aa(lp236
I236
aI13
aI987
aI14960
aa(lp237
I237
aI13
aI533
aI14112
aa(lp238
I238
aI13
aI533
aI7169
aa(lp239
I239
aI13
aI533
aI523
aa(lp240
I240
aI13
aI533
aI14112
aa(lp241
I241
aI13
aI533
aI7169
aa(lp242
I242
aI13
aI533
aI523
aa(lp243
I243
aI13
aI7169
aI7173
aa(lp244
I244
aI13
aI523
aI21801
aa(lp245
I245
aI13
aI523
aI5791
aa(lp246
I246
aI13
aI523
aI533
aa(lp247
I247
aI13
aI21801
aI21797
aa(lp248
I248
aI13
aI523
aI21801
aa(lp249
I249
aI13
aI523
aI5791
aa(lp250
I250
aI13
aI523
aI533
aa(lp251
I251
aI13
aI5791
aI5795
aa(lp252
I252
aI13
aI1780
aI13211
aa(lp253
I253
aI13
aI1780
aI1770
aa(lp254
I254
aI13
aI13211
aI13215
aa(lp255
I255
aI13
aI2031
aI19942
aa(lp256
I256
aI13
aI2031
aI5579
aa(lp257
I257
aI13
aI2031
aI19942
aa(lp258
I258
aI13
aI2031
aI5579
aa(lp259
I259
aI13
aI3278
aI18886
aa(lp260
I260
aI13
aI3278
aI5000
aa(lp261
I261
aI13
aI3278
aI3288
aa(lp262
I262
aI13
aI18886
aI18882
aa(lp263
I263
aI13
aI3278
aI18886
aa(lp264
I264
aI13
aI3278
aI5000
aa(lp265
I265
aI13
aI3278
aI3288
aa(lp266
I266
aI13
aI5000
aI4996
aa(lp267
I267
aI13
aI813
aI16762
aa(lp268
I268
aI13
aI813
aI18935
aa(lp269
I269
aI13
aI813
aI823
aa(lp270
I270
aI13
aI813
aI16762
aa(lp271
I271
aI13
aI813
aI18935
aa(lp272
I272
aI13
aI813
aI823
aa(lp273
I273
aI13
aI272
aI12416
aa(lp274
I274
aI13
aI272
aI4735
aa(lp275
I275
aI13
aI272
aI262
aa(lp276
I276
aI13
aI12416
aI12420
aa(lp277
I277
aI13
aI272
aI12416
aa(lp278
I278
aI13
aI272
aI4735
aa(lp279
I279
aI13
aI272
aI262
aa(lp280
I280
aI13
aI4735
aI4731
aa(lp281
I281
aI13
aI1925
aI17508
aa(lp282
I282
aI13
aI1925
aI1915
aa(lp283
I283
aI13
aI17508
aI17504
aa(lp284
I284
aI13
aI1925
aI17508
aa(lp285
I285
aI13
aI1925
aI1915
aa(lp286
I286
aI13
aI446
aI18511
aa(lp287
I287
aI13
aI446
aI18511
aa(lp288
I288
aI13
aI910
aI17557
aa(lp289
I289
aI13
aI910
aI18988
aa(lp290
I290
aI13
aI910
aI900
aa(lp291
I291
aI13
aI17557
aI17561
aa(lp292
I292
aI13
aI910
aI17557
aa(lp293
I293
aI13
aI910
aI18988
aa(lp294
I294
aI13
aI910
aI900
aa(lp295
I295
aI13
aI18988
aI18992
aa(lp296
I296
aI13
aI2592
aI15437
aa(lp297
I297
aI13
aI2592
aI18617
aa(lp298
I298
aI13
aI2592
aI2582
aa(lp299
I299
aI13
aI15437
aI15441
aa(lp300
I300
aI13
aI2592
aI15437
aa(lp301
I301
aI13
aI2592
aI18617
aa(lp302
I302
aI13
aI2592
aI2582
aa(lp303
I303
aI13
aI18617
aI18621
aa(lp304
I304
aI13
aI1
aI7328
aa(lp305
I305
aI13
aI1
aI16338
aa(lp306
I306
aI13
aI1
aI11
aa(lp307
I307
aI13
aI1
aI7328
aa(lp308
I308
aI13
aI1
aI16338
aa(lp309
I309
aI13
aI1
aI11
aa(lp310
I310
aI13
aI16338
aI16342
aa(lp311
I311
aI13
aI349
aI16448
aa(lp312
I312
aI13
aI349
aI9819
aa(lp313
I313
aI13
aI349
aI359
aa(lp314
I314
aI13
aI16448
aI16444
aa(lp315
I315
aI13
aI349
aI16448
aa(lp316
I316
aI13
aI349
aI9819
aa(lp317
I317
aI13
aI349
aI359
aa(lp318
I318
aI13
aI1915
aI8494
aa(lp319
I319
aI13
aI1915
aI21108
aa(lp320
I320
aI13
aI1915
aI1925
aa(lp321
I321
aI13
aI1915
aI8494
aa(lp322
I322
aI13
aI1915
aI21108
aa(lp323
I323
aI13
aI1915
aI1925
aa(lp324
I324
aI13
aI1838
aI21006
aa(lp325
I325
aI13
aI1838
aI7173
aa(lp326
I326
aI13
aI1838
aI1828
aa(lp327
I327
aI13
aI21006
aI21002
aa(lp328
I328
aI13
aI1838
aI21006
aa(lp329
I329
aI13
aI1838
aI7173
aa(lp330
I330
aI13
aI1838
aI1828
aa(lp331
I331
aI13
aI7173
aI7169
aa(lp332
I332
aI13
aI1828
aI17296
aa(lp333
I333
aI13
aI1828
aI16126
aa(lp334
I334
aI13
aI1828
aI1838
aa(lp335
I335
aI13
aI17296
aI17292
aa(lp336
I336
aI13
aI1828
aI17296
aa(lp337
I337
aI13
aI1828
aI16126
aa(lp338
I338
aI13
aI1828
aI1838
aa(lp339
I339
aI13
aI16126
aI16130
aa(lp340
I340
aI13
aI204
aI16342
aa(lp341
I341
aI13
aI204
aI21691
aa(lp342
I342
aI13
aI16342
aI16338
aa(lp343
I343
aI13
aI204
aI16342
aa(lp344
I344
aI13
aI204
aI21691
aa(lp345
I345
aI13
aI21691
aI21695
aa(lp346
I346
aI13
aI2553
aI17561
aa(lp347
I347
aI13
aI2553
aI14218
aa(lp348
I348
aI13
aI2553
aI2563
aa(lp349
I349
aI13
aI17561
aI17557
aa(lp350
I350
aI13
aI2553
aI17561
aa(lp351
I351
aI13
aI2553
aI14218
aa(lp352
I352
aI13
aI2553
aI2563
aa(lp353
I353
aI13
aI14218
aI14222
aa(lp354
I354
aI13
aI1084
aI15176
aa(lp355
I355
aI13
aI1084
aI18882
aa(lp356
I356
aI13
aI1084
aI1074
aa(lp357
I357
aI13
aI15176
aI15172
aa(lp358
I358
aI13
aI1084
aI15176
aa(lp359
I359
aI13
aI1084
aI18882
aa(lp360
I360
aI13
aI1084
aI1074
aa(lp361
I361
aI13
aI18882
aI18886
aa(lp362
I362
aI13
aI11
aI9395
aa(lp363
I363
aI13
aI11
aI7703
aa(lp364
I364
aI13
aI11
aI1
aa(lp365
I365
aI13
aI9395
aI9399
aa(lp366
I366
aI13
aI11
aI9395
aa(lp367
I367
aI13
aI11
aI7703
aa(lp368
I368
aI13
aI11
aI1
aa(lp369
I369
aI13
aI359
aI9399
aa(lp370
I370
aI13
aI359
aI8600
aa(lp371
I371
aI13
aI359
aI349
aa(lp372
I372
aI13
aI9399
aI9395
aa(lp373
I373
aI13
aI359
aI9399
aa(lp374
I374
aI13
aI359
aI8600
aa(lp375
I375
aI13
aI359
aI349
aa(lp376
I376
aI13
aI8600
aI8604
aa(lp377
I377
aI13
aI1045
aI15441
aa(lp378
I378
aI13
aI1045
aI18992
aa(lp379
I379
aI13
aI15441
aI15437
aa(lp380
I380
aI13
aI1045
aI15441
aa(lp381
I381
aI13
aI1045
aI18992
aa(lp382
I382
aI13
aI18992
aI18988
aa(lp383
I383
aI13
aI59
aI16444
aa(lp384
I384
aI13
aI59
aI69
aa(lp385
I385
aI13
aI16444
aI16448
aa(lp386
I386
aI13
aI146
aI9607
aa(lp387
I387
aI13
aI146
aI13847
aa(lp388
I388
aI13
aI9607
aI9611
aa(lp389
I389
aI13
aI146
aI9607
aa(lp390
I390
aI13
aI146
aI13847
aa(lp391
I391
aI13
aI1345
aI12367
aa(lp392
I392
aI13
aI1345
aI21695
aa(lp393
I393
aI13
aI1345
aI1335
aa(lp394
I394
aI13
aI12367
aI12363
aa(lp395
I395
aI13
aI1345
aI12367
aa(lp396
I396
aI13
aI1345
aI21695
aa(lp397
I397
aI13
aI1345
aI1335
aa(lp398
I398
aI13
aI21695
aI21691
aa(lp399
I399
aI13
aI2563
aI15229
aa(lp400
I400
aI13
aI2563
aI10936
aa(lp401
I401
aI13
aI2563
aI2553
aa(lp402
I402
aI13
aI15229
aI15225
aa(lp403
I403
aI13
aI2563
aI15229
aa(lp404
I404
aI13
aI2563
aI10936
aa(lp405
I405
aI13
aI2563
aI2553
aa(lp406
I406
aI13
aI10936
aI10932
aa(lp407
I407
aI13
aI2756
aI19628
aa(lp408
I408
aI13
aI2756
aI19628
aa(lp409
I409
aI13
aI4311
aI4307
aa(lp410
I410
aI13
aI3336
aI18458
aa(lp411
I411
aI13
aI3336
aI19465
aa(lp412
I412
aI13
aI3336
aI18458
aa(lp413
I413
aI13
aI3336
aI19465
aa(lp414
I414
aI13
aI2679
aI5208
aa(lp415
I415
aI13
aI2679
aI4205
aa(lp416
I416
aI13
aI2679
aI2669
aa(lp417
I417
aI13
aI5208
aI5212
aa(lp418
I418
aI13
aI2679
aI5208
aa(lp419
I419
aI13
aI2679
aI4205
aa(lp420
I420
aI13
aI2679
aI2669
aa(lp421
I421
aI13
aI1335
aI8604
aa(lp422
I422
aI13
aI1335
aI18303
aa(lp423
I423
aI13
aI1335
aI1345
aa(lp424
I424
aI13
aI8604
aI8600
aa(lp425
I425
aI13
aI1335
aI8604
aa(lp426
I426
aI13
aI1335
aI18303
aa(lp427
I427
aI13
aI1335
aI1345
aa(lp428
I428
aI13
aI18303
aI18299
aa(lp429
I429
aI13
aI69
aI8812
aa(lp430
I430
aI13
aI69
aI14222
aa(lp431
I431
aI13
aI69
aI59
aa(lp432
I432
aI13
aI8812
aI8816
aa(lp433
I433
aI13
aI69
aI8812
aa(lp434
I434
aI13
aI69
aI14222
aa(lp435
I435
aI13
aI69
aI59
aa(lp436
I436
aI13
aI14222
aI14218
aa(lp437
I437
aI13
aI2669
aI10826
aa(lp438
I438
aI13
aI2669
aI6745
aa(lp439
I439
aI13
aI2669
aI2679
aa(lp440
I440
aI13
aI2669
aI10826
aa(lp441
I441
aI13
aI2669
aI6745
aa(lp442
I442
aI13
aI2669
aI2679
aa(lp443
I443
aI13
aI3191
aI4046
aa(lp444
I444
aI13
aI3191
aI5212
aa(lp445
I445
aI13
aI4046
aI4042
aa(lp446
I446
aI13
aI3191
aI4046
aa(lp447
I447
aI13
aI3191
aI5212
aa(lp448
I448
aI13
aI5212
aI5208
aa(lp449
I449
aI13
aI2205
aI17720
aa(lp450
I450
aI13
aI2205
aI17084
aa(lp451
I451
aI13
aI2205
aI2215
aa(lp452
I452
aI13
aI2205
aI17720
aa(lp453
I453
aI13
aI2205
aI17084
aa(lp454
I454
aI13
aI2205
aI2215
aa(lp455
I455
aI13
aI1277
aI19889
aa(lp456
I456
aI13
aI1277
aI15225
aa(lp457
I457
aI13
aI1277
aI1287
aa(lp458
I458
aI13
aI19889
aI19893
aa(lp459
I459
aI13
aI1277
aI19889
aa(lp460
I460
aI13
aI1277
aI15225
aa(lp461
I461
aI13
aI1277
aI1287
aa(lp462
I462
aI13
aI15225
aI15229
aa(lp463
I463
aI13
aI3046
aI9611
aa(lp464
I464
aI13
aI3046
aI18299
aa(lp465
I465
aI13
aI9611
aI9607
aa(lp466
I466
aI13
aI3046
aI9611
aa(lp467
I467
aI13
aI3046
aI18299
aa(lp468
I468
aI13
aI18299
aI18303
aa(lp469
I469
aI13
aI1287
aI18193
aa(lp470
I470
aI13
aI1287
aI16660
aa(lp471
I471
aI13
aI1287
aI1277
aa(lp472
I472
aI13
aI1287
aI18193
aa(lp473
I473
aI13
aI1287
aI16660
aa(lp474
I474
aI13
aI1287
aI1277
aa(lp475
I475
aI13
aI2128
aI10035
aa(lp476
I476
aI13
aI2128
aI5848
aa(lp477
I477
aI13
aI2128
aI2118
aa(lp478
I478
aI13
aI2128
aI10035
aa(lp479
I479
aI13
aI2128
aI5848
aa(lp480
I480
aI13
aI2128
aI2118
aa(lp481
I481
aI13
aI2292
aI9024
aa(lp482
I482
aI13
aI2292
aI15596
aa(lp483
I483
aI13
aI2292
aI2302
aa(lp484
I484
aI13
aI2292
aI9024
aa(lp485
I485
aI13
aI2292
aI15596
aa(lp486
I486
aI13
aI2292
aI2302
aa(lp487
I487
aI13
aI1664
aI5318
aa(lp488
I488
aI13
aI1664
aI5155
aa(lp489
I489
aI13
aI1664
aI1654
aa(lp490
I490
aI13
aI5318
aI5314
aa(lp491
I491
aI13
aI1664
aI5318
aa(lp492
I492
aI13
aI1664
aI5155
aa(lp493
I493
aI13
aI1664
aI1654
aa(lp494
I494
aI13
aI1654
aI14536
aa(lp495
I495
aI13
aI1654
aI16554
aa(lp496
I496
aI13
aI1654
aI1664
aa(lp497
I497
aI13
aI14536
aI14540
aa(lp498
I498
aI13
aI1654
aI14536
aa(lp499
I499
aI13
aI1654
aI16554
aa(lp500
I500
aI13
aI1654
aI1664
aa(lp501
I501
aI13
aI16554
aI16550
aa(lp502
I502
aI13
aI2273
aI21324
aa(lp503
I503
aI13
aI2273
aI19098
aa(lp504
I504
aI13
aI21324
aI21320
aa(lp505
I505
aI13
aI2273
aI21324
aa(lp506
I506
aI13
aI2273
aI19098
aa(lp507
I507
aI13
aI19098
aI19094
aa(lp508
I508
aI13
aI2118
aI21373
aa(lp509
I509
aI13
aI2118
aI8445
aa(lp510
I510
aI13
aI2118
aI2128
aa(lp511
I511
aI13
aI21373
aI21377
aa(lp512
I512
aI13
aI2118
aI21373
aa(lp513
I513
aI13
aI2118
aI8445
aa(lp514
I514
aI13
aI2118
aI2128
aa(lp515
I515
aI13
aI8445
aI8441
aa(lp516
I516
aI13
aI639
aI16819
aa(lp517
I517
aI13
aI639
aI18409
aa(lp518
I518
aI13
aI639
aI649
aa(lp519
I519
aI13
aI16819
aI16815
aa(lp520
I520
aI13
aI639
aI16819
aa(lp521
I521
aI13
aI639
aI18409
aa(lp522
I522
aI13
aI639
aI649
aa(lp523
I523
aI13
aI18409
aI18405
aa(lp524
I524
aI13
aI3017
aI16550
aa(lp525
I525
aI13
aI3017
aI20529
aa(lp526
I526
aI13
aI3017
aI3027
aa(lp527
I527
aI13
aI16550
aI16554
aa(lp528
I528
aI13
aI3017
aI16550
aa(lp529
I529
aI13
aI3017
aI20529
aa(lp530
I530
aI13
aI3017
aI3027
aa(lp531
I531
aI13
aI20529
aI20525
aa(lp532
I532
aI13
aI2930
aI13264
aa(lp533
I533
aI13
aI2930
aI8547
aa(lp534
I534
aI13
aI2930
aI2940
aa(lp535
I535
aI13
aI13264
aI13268
aa(lp536
I536
aI13
aI2930
aI13264
aa(lp537
I537
aI13
aI2930
aI8547
aa(lp538
I538
aI13
aI2930
aI2940
aa(lp539
I539
aI13
aI8547
aI8551
aa(lp540
I540
aI13
aI649
aI6590
aa(lp541
I541
aI13
aI649
aI14540
aa(lp542
I542
aI13
aI649
aI639
aa(lp543
I543
aI13
aI6590
aI6586
aa(lp544
I544
aI13
aI649
aI6590
aa(lp545
I545
aI13
aI649
aI14540
aa(lp546
I546
aI13
aI649
aI639
aa(lp547
I547
aI13
aI14540
aI14536
aa(lp548
I548
aI13
aI3027
aI21271
aa(lp549
I549
aI13
aI3027
aI18670
aa(lp550
I550
aI13
aI3027
aI3017
aa(lp551
I551
aI13
aI21271
aI21267
aa(lp552
I552
aI13
aI3027
aI21271
aa(lp553
I553
aI13
aI3027
aI18670
aa(lp554
I554
aI13
aI3027
aI3017
aa(lp555
I555
aI13
aI2350
aI6484
aa(lp556
I556
aI13
aI2350
aI5314
aa(lp557
I557
aI13
aI2350
aI2360
aa(lp558
I558
aI13
aI6484
aI6480
aa(lp559
I559
aI13
aI2350
aI6484
aa(lp560
I560
aI13
aI2350
aI5314
aa(lp561
I561
aI13
aI2350
aI2360
aa(lp562
I562
aI13
aI5314
aI5318
aa(lp563
I563
aI13
aI2901
aI20260
aa(lp564
I564
aI13
aI2901
aI4576
aa(lp565
I565
aI13
aI2901
aI2911
aa(lp566
I566
aI13
aI2901
aI20260
aa(lp567
I567
aI13
aI2901
aI4576
aa(lp568
I568
aI13
aI2901
aI2911
aa(lp569
I569
aI13
aI2495
aI19575
aa(lp570
I570
aI13
aI2495
aI19575
aa(lp571
I571
aI13
aI2940
aI15918
aa(lp572
I572
aI13
aI2940
aI6480
aa(lp573
I573
aI13
aI2940
aI2930
aa(lp574
I574
aI13
aI15918
aI15914
aa(lp575
I575
aI13
aI2940
aI15918
aa(lp576
I576
aI13
aI2940
aI6480
aa(lp577
I577
aI13
aI2940
aI2930
aa(lp578
I578
aI13
aI6480
aI6484
aa(lp579
I579
aI13
aI2524
aI18405
aa(lp580
I580
aI13
aI2524
aI12257
aa(lp581
I581
aI13
aI2524
aI2534
aa(lp582
I582
aI13
aI18405
aI18409
aa(lp583
I583
aI13
aI2524
aI18405
aa(lp584
I584
aI13
aI2524
aI12257
aa(lp585
I585
aI13
aI2524
aI2534
aa(lp586
I586
aI13
aI12257
aI12261
aa(lp587
I587
aI13
aI2186
aI4258
aa(lp588
I588
aI13
aI2186
aI13476
aa(lp589
I589
aI13
aI2186
aI4258
aa(lp590
I590
aI13
aI2186
aI13476
aa(lp591
I591
aI13
aI13476
aI13480
aa(lp592
I592
aI13
aI2360
aI3993
aa(lp593
I593
aI13
aI2360
aI8441
aa(lp594
I594
aI13
aI2360
aI2350
aa(lp595
I595
aI13
aI3993
aI3989
aa(lp596
I596
aI13
aI2360
aI3993
aa(lp597
I597
aI13
aI2360
aI8441
aa(lp598
I598
aI13
aI2360
aI2350
aa(lp599
I599
aI13
aI8441
aI8445
aa(lp600
I600
aI13
aI871
aI21748
aa(lp601
I601
aI13
aI871
aI9081
aa(lp602
I602
aI13
aI871
aI881
aa(lp603
I603
aI13
aI871
aI21748
aa(lp604
I604
aI13
aI871
aI9081
aa(lp605
I605
aI13
aI871
aI881
aa(lp606
I606
aI13
aI9081
aI9077
aa(lp607
I607
aI13
aI1683
aI20366
aa(lp608
I608
aI13
aI1683
aI20525
aa(lp609
I609
aI13
aI20366
aI20370
aa(lp610
I610
aI13
aI1683
aI20366
aa(lp611
I611
aI13
aI1683
aI20525
aa(lp612
I612
aI13
aI20525
aI20529
aa(lp613
I613
aI13
aI881
aI8021
aa(lp614
I614
aI13
aI881
aI15865
aa(lp615
I615
aI13
aI881
aI871
aa(lp616
I616
aI13
aI881
aI8021
aa(lp617
I617
aI13
aI881
aI15865
aa(lp618
I618
aI13
aI881
aI871
aa(lp619
I619
aI13
aI2911
aI14695
aa(lp620
I620
aI13
aI2911
aI4947
aa(lp621
I621
aI13
aI2911
aI2901
aa(lp622
I622
aI13
aI14695
aI14699
aa(lp623
I623
aI13
aI2911
aI14695
aa(lp624
I624
aI13
aI2911
aI4947
aa(lp625
I625
aI13
aI2911
aI2901
aa(lp626
I626
aI13
aI2534
aI3671
aa(lp627
I627
aI13
aI2534
aI6586
aa(lp628
I628
aI13
aI2534
aI2524
aa(lp629
I629
aI13
aI2534
aI3671
aa(lp630
I630
aI13
aI2534
aI6586
aa(lp631
I631
aI13
aI2534
aI2524
aa(lp632
I632
aI13
aI6586
aI6590
aa(lp633
I633
aI13
aI3288
aI16501
aa(lp634
I634
aI13
aI3288
aI6904
aa(lp635
I635
aI13
aI3288
aI3278
aa(lp636
I636
aI13
aI16501
aI16497
aa(lp637
I637
aI13
aI3288
aI16501
aa(lp638
I638
aI13
aI3288
aI6904
aa(lp639
I639
aI13
aI3288
aI3278
aa(lp640
I640
aI13
aI6904
aI6908
aa(lp641
I641
aI13
aI504
aI4519
aa(lp642
I642
aI13
aI504
aI13321
aa(lp643
I643
aI13
aI504
aI494
aa(lp644
I644
aI13
aI4519
aI4523
aa(lp645
I645
aI13
aI504
aI4519
aa(lp646
I646
aI13
aI504
aI13321
aa(lp647
I647
aI13
aI504
aI494
aa(lp648
I648
aI13
aI13321
aI13317
aa(lp649
I649
aI13
aI2331
aI14059
aa(lp650
I650
aI13
aI2331
aI5424
aa(lp651
I651
aI13
aI2331
aI2321
aa(lp652
I652
aI13
aI14059
aI14063
aa(lp653
I653
aI13
aI2331
aI14059
aa(lp654
I654
aI13
aI2331
aI5424
aa(lp655
I655
aI13
aI2331
aI2321
aa(lp656
I656
aI13
aI5424
aI5420
aa(lp657
I657
aI13
aI997
aI9077
aa(lp658
I658
aI13
aI997
aI18564
aa(lp659
I659
aI13
aI9077
aI9081
aa(lp660
I660
aI13
aI997
aI9077
aa(lp661
I661
aI13
aI997
aI18564
aa(lp662
I662
aI13
aI18564
aI18568
aa(lp663
I663
aI13
aI3597
aI11837
aa(lp664
I664
aI13
aI3597
aI4894
aa(lp665
I665
aI13
aI3597
aI3607
aa(lp666
I666
aI13
aI11837
aI11833
aa(lp667
I667
aI13
aI3597
aI11837
aa(lp668
I668
aI13
aI3597
aI4894
aa(lp669
I669
aI13
aI3597
aI3607
aa(lp670
I670
aI13
aI765
aI11413
aa(lp671
I671
aI13
aI765
aI7385
aa(lp672
I672
aI13
aI11413
aI11409
aa(lp673
I673
aI13
aI765
aI11413
aa(lp674
I674
aI13
aI765
aI7385
aa(lp675
I675
aI13
aI3317
aI3777
aa(lp676
I676
aI13
aI3317
aI13427
aa(lp677
I677
aI13
aI3317
aI3307
aa(lp678
I678
aI13
aI3777
aI3781
aa(lp679
I679
aI13
aI3317
aI3777
aa(lp680
I680
aI13
aI3317
aI13427
aa(lp681
I681
aI13
aI3317
aI3307
aa(lp682
I682
aI13
aI13427
aI13423
aa(lp683
I683
aI13
aI3172
aI11780
aa(lp684
I684
aI13
aI3172
aI14699
aa(lp685
I685
aI13
aI3172
aI3162
aa(lp686
I686
aI13
aI11780
aI11784
aa(lp687
I687
aI13
aI3172
aI11780
aa(lp688
I688
aI13
aI3172
aI14699
aa(lp689
I689
aI13
aI3172
aI3162
aa(lp690
I690
aI13
aI14699
aI14695
aa(lp691
I691
aI13
aI968
aI4678
aa(lp692
I692
aI13
aI968
aI17985
aa(lp693
I693
aI13
aI968
aI958
aa(lp694
I694
aI13
aI4678
aI4682
aa(lp695
I695
aI13
aI968
aI4678
aa(lp696
I696
aI13
aI968
aI17985
aa(lp697
I697
aI13
aI968
aI958
aa(lp698
I698
aI13
aI17985
aI17981
aa(lp699
I699
aI13
aI3307
aI9236
aa(lp700
I700
aI13
aI3307
aI5477
aa(lp701
I701
aI13
aI3307
aI3317
aa(lp702
I702
aI13
aI9236
aI9240
aa(lp703
I703
aI13
aI3307
aI9236
aa(lp704
I704
aI13
aI3307
aI5477
aa(lp705
I705
aI13
aI3307
aI3317
aa(lp706
I706
aI13
aI5477
aI5473
aa(lp707
I707
aI13
aI1480
aI21797
aa(lp708
I708
aI13
aI1480
aI11254
aa(lp709
I709
aI13
aI1480
aI1490
aa(lp710
I710
aI13
aI21797
aI21801
aa(lp711
I711
aI13
aI1480
aI21797
aa(lp712
I712
aI13
aI1480
aI11254
aa(lp713
I713
aI13
aI1480
aI1490
aa(lp714
I714
aI13
aI11254
aI11250
aa(lp715
I715
aI13
aI1490
aI17663
aa(lp716
I716
aI13
aI1490
aI11409
aa(lp717
I717
aI13
aI1490
aI1480
aa(lp718
I718
aI13
aI17663
aI17667
aa(lp719
I719
aI13
aI1490
aI17663
aa(lp720
I720
aI13
aI1490
aI11409
aa(lp721
I721
aI13
aI1490
aI1480
aa(lp722
I722
aI13
aI11409
aI11413
aa(lp723
I723
aI13
aI2321
aI13423
aa(lp724
I724
aI13
aI2321
aI12526
aa(lp725
I725
aI13
aI2321
aI2331
aa(lp726
I726
aI13
aI13423
aI13427
aa(lp727
I727
aI13
aI2321
aI13423
aa(lp728
I728
aI13
aI2321
aI12526
aa(lp729
I729
aI13
aI2321
aI2331
aa(lp730
I730
aI13
aI12526
aI12522
aa(lp731
I731
aI13
aI436
aI14063
aa(lp732
I732
aI13
aI436
aI9240
aa(lp733
I733
aI13
aI14063
aI14059
aa(lp734
I734
aI13
aI436
aI14063
aa(lp735
I735
aI13
aI436
aI9240
aa(lp736
I736
aI13
aI9240
aI9236
aa(lp737
I737
aI13
aI852
aI4996
aa(lp738
I738
aI13
aI852
aI8918
aa(lp739
I739
aI13
aI852
aI842
aa(lp740
I740
aI13
aI4996
aI5000
aa(lp741
I741
aI13
aI852
aI4996
aa(lp742
I742
aI13
aI852
aI8918
aa(lp743
I743
aI13
aI852
aI842
aa(lp744
I744
aI13
aI8918
aI8922
aa(lp745
I745
aI13
aI1161
aI14377
aa(lp746
I746
aI13
aI1161
aI17875
aa(lp747
I747
aI13
aI1161
aI1171
aa(lp748
I748
aI13
aI14377
aI14381
aa(lp749
I749
aI13
aI1161
aI14377
aa(lp750
I750
aI13
aI1161
aI17875
aa(lp751
I751
aI13
aI1161
aI1171
aa(lp752
I752
aI13
aI17875
aI17879
aa(lp753
I753
aI13
aI842
aI21479
aa(lp754
I754
aI13
aI842
aI14381
aa(lp755
I755
aI13
aI842
aI852
aa(lp756
I756
aI13
aI21479
aI21483
aa(lp757
I757
aI13
aI842
aI21479
aa(lp758
I758
aI13
aI842
aI14381
aa(lp759
I759
aI13
aI842
aI852
aa(lp760
I760
aI13
aI14381
aI14377
aa(lp761
I761
aI13
aI2447
aI5473
aa(lp762
I762
aI13
aI2447
aI3781
aa(lp763
I763
aI13
aI5473
aI5477
aa(lp764
I764
aI13
aI2447
aI5473
aa(lp765
I765
aI13
aI2447
aI3781
aa(lp766
I766
aI13
aI3781
aI3777
aa(lp767
I767
aI13
aI127
aI14116
aa(lp768
I768
aI13
aI127
aI14964
aa(lp769
I769
aI13
aI127
aI117
aa(lp770
I770
aI13
aI127
aI14116
aa(lp771
I771
aI13
aI127
aI14964
aa(lp772
I772
aI13
aI127
aI117
aa(lp773
I773
aI13
aI1171
aI19730
aa(lp774
I774
aI13
aI1171
aI9501
aa(lp775
I775
aI13
aI1171
aI1161
aa(lp776
I776
aI13
aI1171
aI19730
aa(lp777
I777
aI13
aI1171
aI9501
aa(lp778
I778
aI13
aI1171
aI1161
aa(lp779
I779
aI13
aI9501
aI9505
aa(lp780
I780
aI13
aI1074
aI10932
aa(lp781
I781
aI13
aI1074
aI13745
aa(lp782
I782
aI13
aI1074
aI1084
aa(lp783
I783
aI13
aI10932
aI10936
aa(lp784
I784
aI13
aI1074
aI10932
aa(lp785
I785
aI13
aI1074
aI13745
aa(lp786
I786
aI13
aI1074
aI1084
aa(lp787
I787
aI13
aI13745
aI13741
aa(lp788
I788
aI13
aI3249
aI11250
aa(lp789
I789
aI13
aI3249
aI16603
aa(lp790
I790
aI13
aI3249
aI3259
aa(lp791
I791
aI13
aI11250
aI11254
aa(lp792
I792
aI13
aI3249
aI11250
aa(lp793
I793
aI13
aI3249
aI16603
aa(lp794
I794
aI13
aI3249
aI3259
aa(lp795
I795
aI13
aI117
aI20154
aa(lp796
I796
aI13
aI117
aI11784
aa(lp797
I797
aI13
aI117
aI127
aa(lp798
I798
aI13
aI20154
aI20158
aa(lp799
I799
aI13
aI117
aI20154
aa(lp800
I800
aI13
aI117
aI11784
aa(lp801
I801
aI13
aI117
aI127
aa(lp802
I802
aI13
aI11784
aI11780
aa(lp803
I803
aI13
aI156
aI21585
aa(lp804
I804
aI13
aI156
aI13688
aa(lp805
I805
aI13
aI21585
aI21589
aa(lp806
I806
aI13
aI156
aI21585
aa(lp807
I807
aI13
aI156
aI13688
aa(lp808
I808
aI13
aI13688
aI13692
aa(lp809
I809
aI13
aI291
aI10985
aa(lp810
I810
aI13
aI291
aI7805
aa(lp811
I811
aI13
aI291
aI301
aa(lp812
I812
aI13
aI10985
aI10989
aa(lp813
I813
aI13
aI291
aI10985
aa(lp814
I814
aI13
aI291
aI7805
aa(lp815
I815
aI13
aI291
aI301
aa(lp816
I816
aI13
aI3259
aI17027
aa(lp817
I817
aI13
aI3259
aI10883
aa(lp818
I818
aI13
aI3259
aI3249
aa(lp819
I819
aI13
aI3259
aI17027
aa(lp820
I820
aI13
aI3259
aI10883
aa(lp821
I821
aI13
aI3259
aI3249
aa(lp822
I822
aI13
aI10883
aI10879
aa(lp823
I823
aI13
aI475
aI8922
aa(lp824
I824
aI13
aI475
aI13900
aa(lp825
I825
aI13
aI475
aI465
aa(lp826
I826
aI13
aI8922
aI8918
aa(lp827
I827
aI13
aI475
aI8922
aa(lp828
I828
aI13
aI475
aI13900
aa(lp829
I829
aI13
aI475
aI465
aa(lp830
I830
aI13
aI13900
aI13904
aa(lp831
I831
aI13
aI620
aI9505
aa(lp832
I832
aI13
aI620
aI4307
aa(lp833
I833
aI13
aI620
aI610
aa(lp834
I834
aI13
aI9505
aI9501
aa(lp835
I835
aI13
aI620
aI9505
aa(lp836
I836
aI13
aI620
aI4307
aa(lp837
I837
aI13
aI620
aI610
aa(lp838
I838
aI13
aI4307
aI4311
aa(lp839
I839
aI13
aI2766
aI21112
aa(lp840
I840
aI13
aI2766
aI16974
aa(lp841
I841
aI13
aI2766
aI21112
aa(lp842
I842
aI13
aI2766
aI16974
aa(lp843
I843
aI13
aI3220
aI16073
aa(lp844
I844
aI13
aI3220
aI8392
aa(lp845
I845
aI13
aI3220
aI3230
aa(lp846
I846
aI13
aI16073
aI16077
aa(lp847
I847
aI13
aI3220
aI16073
aa(lp848
I848
aI13
aI3220
aI8392
aa(lp849
I849
aI13
aI3220
aI3230
aa(lp850
I850
aI13
aI610
aI11731
aa(lp851
I851
aI13
aI610
aI13953
aa(lp852
I852
aI13
aI610
aI620
aa(lp853
I853
aI13
aI11731
aI11727
aa(lp854
I854
aI13
aI610
aI11731
aa(lp855
I855
aI13
aI610
aI13953
aa(lp856
I856
aI13
aI610
aI620
aa(lp857
I857
aI13
aI13953
aI13957
aa(lp858
I858
aI13
aI2476
aI13851
aa(lp859
I859
aI13
aI2476
aI11727
aa(lp860
I860
aI13
aI2476
aI2466
aa(lp861
I861
aI13
aI2476
aI13851
aa(lp862
I862
aI13
aI2476
aI11727
aa(lp863
I863
aI13
aI2476
aI2466
aa(lp864
I864
aI13
aI11727
aI11731
aa(lp865
I865
aI13
aI2795
aI5159
aa(lp866
I866
aI13
aI2795
aI10720
aa(lp867
I867
aI13
aI2795
aI2785
aa(lp868
I868
aI13
aI2795
aI5159
aa(lp869
I869
aI13
aI2795
aI10720
aa(lp870
I870
aI13
aI2795
aI2785
aa(lp871
I871
aI13
aI10720
aI10724
aa(lp872
I872
aI13
aI465
aI16077
aa(lp873
I873
aI13
aI465
aI21589
aa(lp874
I874
aI13
aI465
aI475
aa(lp875
I875
aI13
aI16077
aI16073
aa(lp876
I876
aI13
aI465
aI16077
aa(lp877
I877
aI13
aI465
aI21589
aa(lp878
I878
aI13
aI465
aI475
aa(lp879
I879
aI13
aI21589
aI21585
aa(lp880
I880
aI13
aI3462
aI12151
aa(lp881
I881
aI13
aI3462
aI9028
aa(lp882
I882
aI13
aI3462
aI3452
aa(lp883
I883
aI13
aI12151
aI12155
aa(lp884
I884
aI13
aI3462
aI12151
aa(lp885
I885
aI13
aI3462
aI9028
aa(lp886
I886
aI13
aI3462
aI3452
aa(lp887
I887
aI13
aI2263
aI15335
aa(lp888
I888
aI13
aI2263
aI19893
aa(lp889
I889
aI13
aI2263
aI15335
aa(lp890
I890
aI13
aI2263
aI19893
aa(lp891
I891
aI13
aI19893
aI19889
aa(lp892
I892
aI13
aI2785
aI10989
aa(lp893
I893
aI13
aI2785
aI14434
aa(lp894
I894
aI13
aI2785
aI2795
aa(lp895
I895
aI13
aI10989
aI10985
aa(lp896
I896
aI13
aI2785
aI10989
aa(lp897
I897
aI13
aI2785
aI14434
aa(lp898
I898
aI13
aI2785
aI2795
aa(lp899
I899
aI13
aI14434
aI14430
aa(lp900
I900
aI13
aI3230
aI12155
aa(lp901
I901
aI13
aI3230
aI7915
aa(lp902
I902
aI13
aI3230
aI3220
aa(lp903
I903
aI13
aI12155
aI12151
aa(lp904
I904
aI13
aI3230
aI12155
aa(lp905
I905
aI13
aI3230
aI7915
aa(lp906
I906
aI13
aI3230
aI3220
aa(lp907
I907
aI13
aI3452
aI16285
aa(lp908
I908
aI13
aI3452
aI14430
aa(lp909
I909
aI13
aI3452
aI3462
aa(lp910
I910
aI13
aI16285
aI16289
aa(lp911
I911
aI13
aI3452
aI16285
aa(lp912
I912
aI13
aI3452
aI14430
aa(lp913
I913
aI13
aI3452
aI3462
aa(lp914
I914
aI13
aI14430
aI14434
aa(lp915
I915
aI13
aI3056
aI4572
aa(lp916
I916
aI13
aI3056
aI10773
aa(lp917
I917
aI13
aI3056
aI4572
aa(lp918
I918
aI13
aI3056
aI10773
aa(lp919
I919
aI13
aI3201
aI16289
aa(lp920
I920
aI13
aI3201
aI8282
aa(lp921
I921
aI13
aI16289
aI16285
aa(lp922
I922
aI13
aI3201
aI16289
aa(lp923
I923
aI13
aI3201
aI8282
aa(lp924
I924
aI13
aI8282
aI8286
aa(lp925
I925
aI13
aI3510
aI17716
aa(lp926
I926
aI13
aI3510
aI3520
aa(lp927
I927
aI13
aI3510
aI17716
aa(lp928
I928
aI13
aI3510
aI3520
aa(lp929
I929
aI13
aI3520
aI13162
aa(lp930
I930
aI13
aI3520
aI21642
aa(lp931
I931
aI13
aI3520
aI3510
aa(lp932
I932
aI13
aI13162
aI13158
aa(lp933
I933
aI13
aI3520
aI13162
aa(lp934
I934
aI13
aI3520
aI21642
aa(lp935
I935
aI13
aI3520
aI3510
aa(lp936
I936
aI13
aI2872
aI9293
aa(lp937
I937
aI13
aI2872
aI19363
aa(lp938
I938
aI13
aI2872
aI2882
aa(lp939
I939
aI13
aI9293
aI9289
aa(lp940
I940
aI13
aI2872
aI9293
aa(lp941
I941
aI13
aI2872
aI19363
aa(lp942
I942
aI13
aI2872
aI2882
aa(lp943
I943
aI13
aI19363
aI19359
aa(lp944
I944
aI13
aI562
aI20790
aa(lp945
I945
aI13
aI562
aI10296
aa(lp946
I946
aI13
aI562
aI552
aa(lp947
I947
aI13
aI20790
aI20794
aa(lp948
I948
aI13
aI562
aI20790
aa(lp949
I949
aI13
aI562
aI10296
aa(lp950
I950
aI13
aI562
aI552
aa(lp951
I951
aI13
aI1741
aI11890
aa(lp952
I952
aI13
aI1741
aI6643
aa(lp953
I953
aI13
aI1741
aI11890
aa(lp954
I954
aI13
aI1741
aI6643
aa(lp955
I955
aI13
aI726
aI6696
aa(lp956
I956
aI13
aI726
aI3834
aa(lp957
I957
aI13
aI726
aI736
aa(lp958
I958
aI13
aI6696
aI6692
aa(lp959
I959
aI13
aI726
aI6696
aa(lp960
I960
aI13
aI726
aI3834
aa(lp961
I961
aI13
aI726
aI736
aa(lp962
I962
aI13
aI3834
aI3830
aa(lp963
I963
aI13
aI2882
aI9717
aa(lp964
I964
aI13
aI2882
aI2872
aa(lp965
I965
aI13
aI9717
aI9713
aa(lp966
I966
aI13
aI668
aI20052
aa(lp967
I967
aI13
aI668
aI9342
aa(lp968
I968
aI13
aI668
aI20052
aa(lp969
I969
aI13
aI668
aI9342
aa(lp970
I970
aI13
aI9342
aI9346
aa(lp971
I971
aI13
aI1200
aI21218
aa(lp972
I972
aI13
aI1200
aI17932
aa(lp973
I973
aI13
aI1200
aI1190
aa(lp974
I974
aI13
aI1200
aI21218
aa(lp975
I975
aI13
aI1200
aI17932
aa(lp976
I976
aI13
aI1200
aI1190
aa(lp977
I977
aI13
aI17932
aI17928
aa(lp978
I978
aI13
aI552
aI16395
aa(lp979
I979
aI13
aI552
aI6374
aa(lp980
I980
aI13
aI552
aI562
aa(lp981
I981
aI13
aI16395
aI16391
aa(lp982
I982
aI13
aI552
aI16395
aa(lp983
I983
aI13
aI552
aI6374
aa(lp984
I984
aI13
aI552
aI562
aa(lp985
I985
aI13
aI2708
aI5901
aa(lp986
I986
aI13
aI2708
aI20684
aa(lp987
I987
aI13
aI2708
aI2698
aa(lp988
I988
aI13
aI5901
aI5897
aa(lp989
I989
aI13
aI2708
aI5901
aa(lp990
I990
aI13
aI2708
aI20684
aa(lp991
I991
aI13
aI2708
aI2698
aa(lp992
I992
aI13
aI1026
aI13158
aa(lp993
I993
aI13
aI1026
aI5367
aa(lp994
I994
aI13
aI1026
aI1016
aa(lp995
I995
aI13
aI13158
aI13162
aa(lp996
I996
aI13
aI1026
aI13158
aa(lp997
I997
aI13
aI1026
aI5367
aa(lp998
I998
aI13
aI1026
aI1016
aa(lp999
I999
aI13
aI5367
aI5371
aa(lp1000
I1000
aI13
aI2959
aI14805
aa(lp1001
I1001
aI13
aI2959
aI5102
aa(lp1002
I1002
aI13
aI14805
aI14801
aa(lp1003
I1003
aI13
aI2959
aI14805
aa(lp1004
I1004
aI13
aI2959
aI5102
aa(lp1005
I1005
aI13
aI5102
aI5106
aa(lp1006
I1006
aI13
aI2824
aI8706
aa(lp1007
I1007
aI13
aI2824
aI9982
aa(lp1008
I1008
aI13
aI8706
aI8710
aa(lp1009
I1009
aI13
aI2824
aI8706
aa(lp1010
I1010
aI13
aI2824
aI9982
aa(lp1011
I1011
aI13
aI1016
aI18246
aa(lp1012
I1012
aI13
aI1016
aI15388
aa(lp1013
I1013
aI13
aI1016
aI1026
aa(lp1014
I1014
aI13
aI18246
aI18250
aa(lp1015
I1015
aI13
aI1016
aI18246
aa(lp1016
I1016
aI13
aI1016
aI15388
aa(lp1017
I1017
aI13
aI1016
aI1026
aa(lp1018
I1018
aI13
aI15388
aI15384
aa(lp1019
I1019
aI13
aI2698
aI7540
aa(lp1020
I1020
aI13
aI2698
aI12314
aa(lp1021
I1021
aI13
aI2698
aI2708
aa(lp1022
I1022
aI13
aI2698
aI7540
aa(lp1023
I1023
aI13
aI2698
aI12314
aa(lp1024
I1024
aI13
aI2698
aI2708
aa(lp1025
I1025
aI13
aI12314
aI12310
aa(lp1026
I1026
aI13
aI1374
aI10084
aa(lp1027
I1027
aI13
aI1374
aI5954
aa(lp1028
I1028
aI13
aI1374
aI10084
aa(lp1029
I1029
aI13
aI1374
aI5954
aa(lp1030
I1030
aI13
aI5954
aI5950
aa(lp1031
I1031
aI13
aI1190
aI6957
aa(lp1032
I1032
aI13
aI1190
aI9713
aa(lp1033
I1033
aI13
aI1190
aI1200
aa(lp1034
I1034
aI13
aI6957
aI6961
aa(lp1035
I1035
aI13
aI1190
aI6957
aa(lp1036
I1036
aI13
aI1190
aI9713
aa(lp1037
I1037
aI13
aI1190
aI1200
aa(lp1038
I1038
aI13
aI9713
aI9717
aa(lp1039
I1039
aI13
aI2640
aI12204
aa(lp1040
I1040
aI13
aI2640
aI9346
aa(lp1041
I1041
aI13
aI2640
aI2650
aa(lp1042
I1042
aI13
aI12204
aI12208
aa(lp1043
I1043
aI13
aI2640
aI12204
aa(lp1044
I1044
aI13
aI2640
aI9346
aa(lp1045
I1045
aI13
aI2640
aI2650
aa(lp1046
I1046
aI13
aI9346
aI9342
aa(lp1047
I1047
aI13
aI2234
aI5371
aa(lp1048
I1048
aI13
aI2234
aI12685
aa(lp1049
I1049
aI13
aI2234
aI2244
aa(lp1050
I1050
aI13
aI5371
aI5367
aa(lp1051
I1051
aI13
aI2234
aI5371
aa(lp1052
I1052
aI13
aI2234
aI12685
aa(lp1053
I1053
aI13
aI2234
aI2244
aa(lp1054
I1054
aI13
aI12685
aI12681
aa(lp1055
I1055
aI13
aI2650
aI7650
aa(lp1056
I1056
aI13
aI2650
aI20900
aa(lp1057
I1057
aI13
aI2650
aI2640
aa(lp1058
I1058
aI13
aI7650
aI7646
aa(lp1059
I1059
aI13
aI2650
aI7650
aa(lp1060
I1060
aI13
aI2650
aI20900
aa(lp1061
I1061
aI13
aI2650
aI2640
aa(lp1062
I1062
aI13
aI1886
aI5950
aa(lp1063
I1063
aI13
aI1886
aI5049
aa(lp1064
I1064
aI13
aI1886
aI1896
aa(lp1065
I1065
aI13
aI5950
aI5954
aa(lp1066
I1066
aI13
aI1886
aI5950
aa(lp1067
I1067
aI13
aI1886
aI5049
aa(lp1068
I1068
aI13
aI1886
aI1896
aa(lp1069
I1069
aI13
aI5049
aI5053
aa(lp1070
I1070
aI13
aI2041
aI13639
aa(lp1071
I1071
aI13
aI2041
aI6537
aa(lp1072
I1072
aI13
aI13639
aI13635
aa(lp1073
I1073
aI13
aI2041
aI13639
aa(lp1074
I1074
aI13
aI2041
aI6537
aa(lp1075
I1075
aI13
aI6537
aI6533
aa(lp1076
I1076
aI13
aI2244
aI19518
aa(lp1077
I1077
aI13
aI2244
aI5106
aa(lp1078
I1078
aI13
aI2244
aI2234
aa(lp1079
I1079
aI13
aI19518
aI19522
aa(lp1080
I1080
aI13
aI2244
aI19518
aa(lp1081
I1081
aI13
aI2244
aI5106
aa(lp1082
I1082
aI13
aI2244
aI2234
aa(lp1083
I1083
aI13
aI5106
aI5102
aa(lp1084
I1084
aI13
aI233
aI9130
aa(lp1085
I1085
aI13
aI233
aI10190
aa(lp1086
I1086
aI13
aI233
aI243
aa(lp1087
I1087
aI13
aI233
aI9130
aa(lp1088
I1088
aI13
aI233
aI10190
aa(lp1089
I1089
aI13
aI233
aI243
aa(lp1090
I1090
aI13
aI10190
aI10194
aa(lp1091
I1091
aI13
aI1432
aI15759
aa(lp1092
I1092
aI13
aI1432
aI19522
aa(lp1093
I1093
aI13
aI1432
aI1422
aa(lp1094
I1094
aI13
aI15759
aI15755
aa(lp1095
I1095
aI13
aI1432
aI15759
aa(lp1096
I1096
aI13
aI1432
aI19522
aa(lp1097
I1097
aI13
aI1432
aI1422
aa(lp1098
I1098
aI13
aI19522
aI19518
aa(lp1099
I1099
aI13
aI2012
aI7438
aa(lp1100
I1100
aI13
aI2012
aI15494
aa(lp1101
I1101
aI13
aI2012
aI2002
aa(lp1102
I1102
aI13
aI7438
aI7434
aa(lp1103
I1103
aI13
aI2012
aI7438
aa(lp1104
I1104
aI13
aI2012
aI15494
aa(lp1105
I1105
aI13
aI2012
aI2002
aa(lp1106
I1106
aI13
aI243
aI12310
aa(lp1107
I1107
aI13
aI243
aI8498
aa(lp1108
I1108
aI13
aI243
aI233
aa(lp1109
I1109
aI13
aI12310
aI12314
aa(lp1110
I1110
aI13
aI243
aI12310
aa(lp1111
I1111
aI13
aI243
aI8498
aa(lp1112
I1112
aI13
aI243
aI233
aa(lp1113
I1113
aI13
aI1896
aI15755
aa(lp1114
I1114
aI13
aI1896
aI20949
aa(lp1115
I1115
aI13
aI1896
aI1886
aa(lp1116
I1116
aI13
aI15755
aI15759
aa(lp1117
I1117
aI13
aI1896
aI15755
aa(lp1118
I1118
aI13
aI1896
aI20949
aa(lp1119
I1119
aI13
aI1896
aI1886
aa(lp1120
I1120
aI13
aI20949
aI20953
aa(lp1121
I1121
aI13
aI1596
aI19147
aa(lp1122
I1122
aI13
aI1596
aI12681
aa(lp1123
I1123
aI13
aI1596
aI19147
aa(lp1124
I1124
aI13
aI1596
aI12681
aa(lp1125
I1125
aI13
aI12681
aI12685
aa(lp1126
I1126
aI13
aI2060
aI6961
aa(lp1127
I1127
aI13
aI2060
aI7646
aa(lp1128
I1128
aI13
aI2060
aI2070
aa(lp1129
I1129
aI13
aI6961
aI6957
aa(lp1130
I1130
aI13
aI2060
aI6961
aa(lp1131
I1131
aI13
aI2060
aI7646
aa(lp1132
I1132
aI13
aI2060
aI2070
aa(lp1133
I1133
aI13
aI7646
aI7650
aa(lp1134
I1134
aI13
aI2408
aI10194
aa(lp1135
I1135
aI13
aI2408
aI15282
aa(lp1136
I1136
aI13
aI2408
aI2418
aa(lp1137
I1137
aI13
aI10194
aI10190
aa(lp1138
I1138
aI13
aI2408
aI10194
aa(lp1139
I1139
aI13
aI2408
aI15282
aa(lp1140
I1140
aI13
aI2408
aI2418
aa(lp1141
I1141
aI13
aI15282
aI15278
aa(lp1142
I1142
aI13
aI262
aI15172
aa(lp1143
I1143
aI13
aI262
aI19783
aa(lp1144
I1144
aI13
aI262
aI272
aa(lp1145
I1145
aI13
aI15172
aI15176
aa(lp1146
I1146
aI13
aI262
aI15172
aa(lp1147
I1147
aI13
aI262
aI19783
aa(lp1148
I1148
aI13
aI262
aI272
aa(lp1149
I1149
aI13
aI19783
aI19787
aa(lp1150
I1150
aI13
aI1248
aI8127
aa(lp1151
I1151
aI13
aI1248
aI9925
aa(lp1152
I1152
aI13
aI1248
aI1258
aa(lp1153
I1153
aI13
aI8127
aI8123
aa(lp1154
I1154
aI13
aI1248
aI8127
aa(lp1155
I1155
aI13
aI1248
aI9925
aa(lp1156
I1156
aI13
aI1248
aI1258
aa(lp1157
I1157
aI13
aI9925
aI9929
aa(lp1158
I1158
aI13
aI1722
aI5738
aa(lp1159
I1159
aI13
aI1722
aI17451
aa(lp1160
I1160
aI13
aI1722
aI1712
aa(lp1161
I1161
aI13
aI1722
aI5738
aa(lp1162
I1162
aI13
aI1722
aI17451
aa(lp1163
I1163
aI13
aI1722
aI1712
aa(lp1164
I1164
aI13
aI17451
aI17455
aa(lp1165
I1165
aI13
aI1954
aI13635
aa(lp1166
I1166
aI13
aI1954
aI1944
aa(lp1167
I1167
aI13
aI13635
aI13639
aa(lp1168
I1168
aI13
aI2418
aI7434
aa(lp1169
I1169
aI13
aI2418
aI20101
aa(lp1170
I1170
aI13
aI2418
aI2408
aa(lp1171
I1171
aI13
aI7434
aI7438
aa(lp1172
I1172
aI13
aI2418
aI7434
aa(lp1173
I1173
aI13
aI2418
aI20101
aa(lp1174
I1174
aI13
aI2418
aI2408
aa(lp1175
I1175
aI13
aI20101
aI20105
aa(lp1176
I1176
aI13
aI2070
aI6007
aa(lp1177
I1177
aI13
aI2070
aI18352
aa(lp1178
I1178
aI13
aI2070
aI2060
aa(lp1179
I1179
aI13
aI6007
aI6003
aa(lp1180
I1180
aI13
aI2070
aI6007
aa(lp1181
I1181
aI13
aI2070
aI18352
aa(lp1182
I1182
aI13
aI2070
aI2060
aa(lp1183
I1183
aI13
aI2147
aI4095
aa(lp1184
I1184
aI13
aI2147
aI8123
aa(lp1185
I1185
aI13
aI2147
aI2157
aa(lp1186
I1186
aI13
aI4095
aI4099
aa(lp1187
I1187
aI13
aI2147
aI4095
aa(lp1188
I1188
aI13
aI2147
aI8123
aa(lp1189
I1189
aI13
aI2147
aI2157
aa(lp1190
I1190
aI13
aI8123
aI8127
aa(lp1191
I1191
aI13
aI3365
aI11360
aa(lp1192
I1192
aI13
aI3365
aI7593
aa(lp1193
I1193
aI13
aI3365
aI3375
aa(lp1194
I1194
aI13
aI11360
aI11356
aa(lp1195
I1195
aI13
aI3365
aI11360
aa(lp1196
I1196
aI13
aI3365
aI7593
aa(lp1197
I1197
aI13
aI3365
aI3375
aa(lp1198
I1198
aI13
aI1103
aI19995
aa(lp1199
I1199
aI13
aI1103
aI16130
aa(lp1200
I1200
aI13
aI1103
aI1113
aa(lp1201
I1201
aI13
aI19995
aI19999
aa(lp1202
I1202
aI13
aI1103
aI19995
aa(lp1203
I1203
aI13
aI1103
aI16130
aa(lp1204
I1204
aI13
aI1103
aI1113
aa(lp1205
I1205
aI13
aI16130
aI16126
aa(lp1206
I1206
aI13
aI929
aI20476
aa(lp1207
I1207
aI13
aI929
aI10243
aa(lp1208
I1208
aI13
aI929
aI939
aa(lp1209
I1209
aI13
aI20476
aI20472
aa(lp1210
I1210
aI13
aI929
aI20476
aa(lp1211
I1211
aI13
aI929
aI10243
aa(lp1212
I1212
aI13
aI929
aI939
aa(lp1213
I1213
aI13
aI10243
aI10247
aa(lp1214
I1214
aI13
aI3375
aI17349
aa(lp1215
I1215
aI13
aI3375
aI7487
aa(lp1216
I1216
aI13
aI3375
aI3365
aa(lp1217
I1217
aI13
aI17349
aI17345
aa(lp1218
I1218
aI13
aI3375
aI17349
aa(lp1219
I1219
aI13
aI3375
aI7487
aa(lp1220
I1220
aI13
aI3375
aI3365
aa(lp1221
I1221
aI13
aI214
aI8759
aa(lp1222
I1222
aI13
aI214
aI8074
aa(lp1223
I1223
aI13
aI214
aI8759
aa(lp1224
I1224
aI13
aI214
aI8074
aa(lp1225
I1225
aI13
aI2157
aI12363
aa(lp1226
I1226
aI13
aI2157
aI20207
aa(lp1227
I1227
aI13
aI2157
aI2147
aa(lp1228
I1228
aI13
aI12363
aI12367
aa(lp1229
I1229
aI13
aI2157
aI12363
aa(lp1230
I1230
aI13
aI2157
aI20207
aa(lp1231
I1231
aI13
aI2157
aI2147
aa(lp1232
I1232
aI13
aI20207
aI20211
aa(lp1233
I1233
aI13
aI2998
aI6003
aa(lp1234
I1234
aI13
aI2998
aI7116
aa(lp1235
I1235
aI13
aI2998
aI2988
aa(lp1236
I1236
aI13
aI6003
aI6007
aa(lp1237
I1237
aI13
aI2998
aI6003
aa(lp1238
I1238
aI13
aI2998
aI7116
aa(lp1239
I1239
aI13
aI2998
aI2988
aa(lp1240
I1240
aI13
aI7116
aI7120
aa(lp1241
I1241
aI13
aI1055
aI4148
aa(lp1242
I1242
aI13
aI1055
aI17345
aa(lp1243
I1243
aI13
aI1055
aI4148
aa(lp1244
I1244
aI13
aI1055
aI17345
aa(lp1245
I1245
aI13
aI17345
aI17349
aa(lp1246
I1246
aI13
aI3114
aI20737
aa(lp1247
I1247
aI13
aI3114
aI7279
aa(lp1248
I1248
aI13
aI3114
aI3104
aa(lp1249
I1249
aI13
aI3114
aI20737
aa(lp1250
I1250
aI13
aI3114
aI7279
aa(lp1251
I1251
aI13
aI3114
aI3104
aa(lp1252
I1252
aI13
aI3104
aI6056
aa(lp1253
I1253
aI13
aI3104
aI16766
aa(lp1254
I1254
aI13
aI3104
aI3114
aa(lp1255
I1255
aI13
aI6056
aI6060
aa(lp1256
I1256
aI13
aI3104
aI6056
aa(lp1257
I1257
aI13
aI3104
aI16766
aa(lp1258
I1258
aI13
aI3104
aI3114
aa(lp1259
I1259
aI13
aI1113
aI15013
aa(lp1260
I1260
aI13
aI1113
aI13105
aa(lp1261
I1261
aI13
aI1113
aI1103
aa(lp1262
I1262
aI13
aI15013
aI15017
aa(lp1263
I1263
aI13
aI1113
aI15013
aa(lp1264
I1264
aI13
aI1113
aI13105
aa(lp1265
I1265
aI13
aI1113
aI1103
aa(lp1266
I1266
aI13
aI13105
aI13109
aa(lp1267
I1267
aI13
aI2988
aI9929
aa(lp1268
I1268
aI13
aI2988
aI12098
aa(lp1269
I1269
aI13
aI2988
aI2998
aa(lp1270
I1270
aI13
aI9929
aI9925
aa(lp1271
I1271
aI13
aI2988
aI9929
aa(lp1272
I1272
aI13
aI2988
aI12098
aa(lp1273
I1273
aI13
aI2988
aI2998
aa(lp1274
I1274
aI13
aI330
aI17292
aa(lp1275
I1275
aI13
aI330
aI20105
aa(lp1276
I1276
aI13
aI330
aI320
aa(lp1277
I1277
aI13
aI17292
aI17296
aa(lp1278
I1278
aI13
aI330
aI17292
aa(lp1279
I1279
aI13
aI330
aI20105
aa(lp1280
I1280
aI13
aI330
aI320
aa(lp1281
I1281
aI13
aI20105
aI20101
aa(lp1282
I1282
aI13
aI939
aI4837
aa(lp1283
I1283
aI13
aI939
aI16232
aa(lp1284
I1284
aI13
aI939
aI929
aa(lp1285
I1285
aI13
aI4837
aI4841
aa(lp1286
I1286
aI13
aI939
aI4837
aa(lp1287
I1287
aI13
aI939
aI16232
aa(lp1288
I1288
aI13
aI939
aI929
aa(lp1289
I1289
aI13
aI16232
aI16236
aa(lp1290
I1290
aI13
aI2215
aI4042
aa(lp1291
I1291
aI13
aI2215
aI17826
aa(lp1292
I1292
aI13
aI2215
aI2205
aa(lp1293
I1293
aI13
aI4042
aI4046
aa(lp1294
I1294
aI13
aI2215
aI4042
aa(lp1295
I1295
aI13
aI2215
aI17826
aa(lp1296
I1296
aI13
aI2215
aI2205
aa(lp1297
I1297
aI13
aI30
aI21638
aa(lp1298
I1298
aI13
aI30
aI11886
aa(lp1299
I1299
aI13
aI30
aI40
aa(lp1300
I1300
aI13
aI30
aI21638
aa(lp1301
I1301
aI13
aI30
aI11886
aa(lp1302
I1302
aI13
aI30
aI40
aa(lp1303
I1303
aI13
aI3346
aI18462
aa(lp1304
I1304
aI13
aI3346
aI7120
aa(lp1305
I1305
aI13
aI3346
aI18462
aa(lp1306
I1306
aI13
aI3346
aI7120
aa(lp1307
I1307
aI13
aI7120
aI7116
aa(lp1308
I1308
aI13
aI40
aI6060
aa(lp1309
I1309
aI13
aI40
aI14010
aa(lp1310
I1310
aI13
aI40
aI30
aa(lp1311
I1311
aI13
aI6060
aI6056
aa(lp1312
I1312
aI13
aI40
aI6060
aa(lp1313
I1313
aI13
aI40
aI14010
aa(lp1314
I1314
aI13
aI40
aI30
aa(lp1315
I1315
aI13
aI14010
aI14006
aa(lp1316
I1316
aI13
aI3491
aI18038
aa(lp1317
I1317
aI13
aI3491
aI17190
aa(lp1318
I1318
aI13
aI3491
aI3481
aa(lp1319
I1319
aI13
aI18038
aI18034
aa(lp1320
I1320
aI13
aI3491
aI18038
aa(lp1321
I1321
aI13
aI3491
aI17190
aa(lp1322
I1322
aI13
aI3491
aI3481
aa(lp1323
I1323
aI13
aI3481
aI11091
aa(lp1324
I1324
aI13
aI3481
aI12734
aa(lp1325
I1325
aI13
aI3481
aI3491
aa(lp1326
I1326
aI13
aI3481
aI11091
aa(lp1327
I1327
aI13
aI3481
aI12734
aa(lp1328
I1328
aI13
aI3481
aI3491
aa(lp1329
I1329
aI13
aI3143
aI4201
aa(lp1330
I1330
aI13
aI3143
aI17769
aa(lp1331
I1331
aI13
aI3143
aI4201
aa(lp1332
I1332
aI13
aI3143
aI17769
aa(lp1333
I1333
aI13
aI17769
aI17773
aa(lp1334
I1334
aI13
aI1867
aI8551
aa(lp1335
I1335
aI13
aI1867
aI1857
aa(lp1336
I1336
aI13
aI1867
aI8551
aa(lp1337
I1337
aI13
aI1867
aI1857
aa(lp1338
I1338
aI13
aI8551
aI8547
aa(lp1339
I1339
aI13
aI1857
aI12579
aa(lp1340
I1340
aI13
aI1857
aI17186
aa(lp1341
I1341
aI13
aI1857
aI1867
aa(lp1342
I1342
aI13
aI12579
aI12575
aa(lp1343
I1343
aI13
aI1857
aI12579
aa(lp1344
I1344
aI13
aI1857
aI17186
aa(lp1345
I1345
aI13
aI1857
aI1867
aa(lp1346
I1346
aI13
aI1751
aI17243
aa(lp1347
I1347
aI13
aI1751
aI14324
aa(lp1348
I1348
aI13
aI1751
aI17243
aa(lp1349
I1349
aI13
aI1751
aI14324
aa(lp1350
I1350
aI13
aI1973
aI11939
aa(lp1351
I1351
aI13
aI1973
aI19681
aa(lp1352
I1352
aI13
aI1973
aI1983
aa(lp1353
I1353
aI13
aI11939
aI11943
aa(lp1354
I1354
aI13
aI1973
aI11939
aa(lp1355
I1355
aI13
aI1973
aI19681
aa(lp1356
I1356
aI13
aI1973
aI1983
aa(lp1357
I1357
aI13
aI19681
aI19677
aa(lp1358
I1358
aI13
aI678
aI12045
aa(lp1359
I1359
aI13
aI678
aI18833
aa(lp1360
I1360
aI13
aI12045
aI12049
aa(lp1361
I1361
aI13
aI678
aI12045
aa(lp1362
I1362
aI13
aI678
aI18833
aa(lp1363
I1363
aI13
aI18833
aI18829
aa(lp1364
I1364
aI13
aI736
aI8335
aa(lp1365
I1365
aI13
aI736
aI6692
aa(lp1366
I1366
aI13
aI736
aI726
aa(lp1367
I1367
aI13
aI8335
aI8339
aa(lp1368
I1368
aI13
aI736
aI8335
aa(lp1369
I1369
aI13
aI736
aI6692
aa(lp1370
I1370
aI13
aI736
aI726
aa(lp1371
I1371
aI13
aI6692
aI6696
aa(lp1372
I1372
aI13
aI1316
aI6639
aa(lp1373
I1373
aI13
aI1316
aI19310
aa(lp1374
I1374
aI13
aI1316
aI1306
aa(lp1375
I1375
aI13
aI1316
aI6639
aa(lp1376
I1376
aI13
aI1316
aI19310
aa(lp1377
I1377
aI13
aI1316
aI1306
aa(lp1378
I1378
aI13
aI1983
aI19416
aa(lp1379
I1379
aI13
aI1983
aI11943
aa(lp1380
I1380
aI13
aI1983
aI1973
aa(lp1381
I1381
aI13
aI19416
aI19412
aa(lp1382
I1382
aI13
aI1983
aI19416
aa(lp1383
I1383
aI13
aI1983
aI11943
aa(lp1384
I1384
aI13
aI1983
aI1973
aa(lp1385
I1385
aI13
aI11943
aI11939
aa(lp1386
I1386
aI13
aI2969
aI10671
aa(lp1387
I1387
aI13
aI2969
aI3728
aa(lp1388
I1388
aI13
aI2969
aI10671
aa(lp1389
I1389
aI13
aI2969
aI3728
aa(lp1390
I1390
aI13
aI3728
aI3724
aa(lp1391
I1391
aI13
aI1306
aI4254
aa(lp1392
I1392
aI13
aI1306
aI14642
aa(lp1393
I1393
aI13
aI1306
aI1316
aa(lp1394
I1394
aI13
aI1306
aI4254
aa(lp1395
I1395
aI13
aI1306
aI14642
aa(lp1396
I1396
aI13
aI1306
aI1316
aa(lp1397
I1397
aI13
aI14642
aI14646
aa(lp1398
I1398
aI13
aI88
aI15808
aa(lp1399
I1399
aI13
aI88
aI3830
aa(lp1400
I1400
aI13
aI88
aI98
aa(lp1401
I1401
aI13
aI15808
aI15812
aa(lp1402
I1402
aI13
aI88
aI15808
aa(lp1403
I1403
aI13
aI88
aI3830
aa(lp1404
I1404
aI13
aI88
aI98
aa(lp1405
I1405
aI13
aI3830
aI3834
aa(lp1406
I1406
aI13
aI1693
aI21744
aa(lp1407
I1407
aI13
aI1693
aI11625
aa(lp1408
I1408
aI13
aI1693
aI21744
aa(lp1409
I1409
aI13
aI1693
aI11625
aa(lp1410
I1410
aI13
aI11625
aI11621
aa(lp1411
I1411
aI13
aI2002
aI5053
aa(lp1412
I1412
aI13
aI2002
aI11572
aa(lp1413
I1413
aI13
aI2002
aI2012
aa(lp1414
I1414
aI13
aI5053
aI5049
aa(lp1415
I1415
aI13
aI2002
aI5053
aa(lp1416
I1416
aI13
aI2002
aI11572
aa(lp1417
I1417
aI13
aI2002
aI2012
aa(lp1418
I1418
aI13
aI11572
aI11568
aa(lp1419
I1419
aI13
aI494
aI5636
aa(lp1420
I1420
aI13
aI494
aI13052
aa(lp1421
I1421
aI13
aI494
aI504
aa(lp1422
I1422
aI13
aI5636
aI5632
aa(lp1423
I1423
aI13
aI494
aI5636
aa(lp1424
I1424
aI13
aI494
aI13052
aa(lp1425
I1425
aI13
aI494
aI504
aa(lp1426
I1426
aI13
aI13052
aI13056
aa(lp1427
I1427
aI13
aI3578
aI9660
aa(lp1428
I1428
aI13
aI3578
aI15543
aa(lp1429
I1429
aI13
aI3578
aI3568
aa(lp1430
I1430
aI13
aI9660
aI9664
aa(lp1431
I1431
aI13
aI3578
aI9660
aa(lp1432
I1432
aI13
aI3578
aI15543
aa(lp1433
I1433
aI13
aI3578
aI3568
aa(lp1434
I1434
aI13
aI15543
aI15547
aa(lp1435
I1435
aI13
aI2176
aI4413
aa(lp1436
I1436
aI13
aI2176
aI4413
aa(lp1437
I1437
aI13
aI4413
aI4417
aa(lp1438
I1438
aI13
aI3568
aI11197
aa(lp1439
I1439
aI13
aI3568
aI9664
aa(lp1440
I1440
aI13
aI3568
aI3578
aa(lp1441
I1441
aI13
aI11197
aI11201
aa(lp1442
I1442
aI13
aI3568
aI11197
aa(lp1443
I1443
aI13
aI3568
aI9664
aa(lp1444
I1444
aI13
aI3568
aI3578
aa(lp1445
I1445
aI13
aI9664
aI9660
aa(lp1446
I1446
aI13
aI2505
aI20313
aa(lp1447
I1447
aI13
aI2505
aI11148
aa(lp1448
I1448
aI13
aI20313
aI20317
aa(lp1449
I1449
aI13
aI2505
aI20313
aa(lp1450
I1450
aI13
aI2505
aI11148
aa(lp1451
I1451
aI13
aI11148
aI11144
aa(lp1452
I1452
aI13
aI98
aI15914
aa(lp1453
I1453
aI13
aI98
aI7968
aa(lp1454
I1454
aI13
aI98
aI88
aa(lp1455
I1455
aI13
aI15914
aI15918
aa(lp1456
I1456
aI13
aI98
aI15914
aa(lp1457
I1457
aI13
aI98
aI7968
aa(lp1458
I1458
aI13
aI98
aI88
aa(lp1459
I1459
aI13
aI7968
aI7964
aa(lp1460
I1460
aI13
aI1451
aI6215
aa(lp1461
I1461
aI13
aI1451
aI11621
aa(lp1462
I1462
aI13
aI1451
aI1461
aa(lp1463
I1463
aI13
aI1451
aI6215
aa(lp1464
I1464
aI13
aI1451
aI11621
aa(lp1465
I1465
aI13
aI1451
aI1461
aa(lp1466
I1466
aI13
aI11621
aI11625
aa(lp1467
I1467
aI13
aI3162
aI9558
aa(lp1468
I1468
aI13
aI3162
aI13268
aa(lp1469
I1469
aI13
aI3162
aI3172
aa(lp1470
I1470
aI13
aI9558
aI9554
aa(lp1471
I1471
aI13
aI3162
aI9558
aa(lp1472
I1472
aI13
aI3162
aI13268
aa(lp1473
I1473
aI13
aI3162
aI3172
aa(lp1474
I1474
aI13
aI13268
aI13264
aa(lp1475
I1475
aI13
aI2379
aI7014
aa(lp1476
I1476
aI13
aI2379
aI12946
aa(lp1477
I1477
aI13
aI2379
aI2389
aa(lp1478
I1478
aI13
aI7014
aI7010
aa(lp1479
I1479
aI13
aI2379
aI7014
aa(lp1480
I1480
aI13
aI2379
aI12946
aa(lp1481
I1481
aI13
aI2379
aI2389
aa(lp1482
I1482
aI13
aI12946
aI12950
aa(lp1483
I1483
aI13
aI2843
aI3724
aa(lp1484
I1484
aI13
aI2843
aI14646
aa(lp1485
I1485
aI13
aI2843
aI2853
aa(lp1486
I1486
aI13
aI3724
aI3728
aa(lp1487
I1487
aI13
aI2843
aI3724
aa(lp1488
I1488
aI13
aI2843
aI14646
aa(lp1489
I1489
aI13
aI2843
aI2853
aa(lp1490
I1490
aI13
aI14646
aI14642
aa(lp1491
I1491
aI13
aI2389
aI15066
aa(lp1492
I1492
aI13
aI2389
aI11307
aa(lp1493
I1493
aI13
aI2389
aI2379
aa(lp1494
I1494
aI13
aI15066
aI15070
aa(lp1495
I1495
aI13
aI2389
aI15066
aa(lp1496
I1496
aI13
aI2389
aI11307
aa(lp1497
I1497
aI13
aI2389
aI2379
aa(lp1498
I1498
aI13
aI11307
aI11303
aa(lp1499
I1499
aI13
aI1461
aI11042
aa(lp1500
I1500
aI13
aI1461
aI11678
aa(lp1501
I1501
aI13
aI1461
aI1451
aa(lp1502
I1502
aI13
aI11042
aI11038
aa(lp1503
I1503
aI13
aI1461
aI11042
aa(lp1504
I1504
aI13
aI1461
aI11678
aa(lp1505
I1505
aI13
aI1461
aI1451
aa(lp1506
I1506
aI13
aI1258
aI8180
aa(lp1507
I1507
aI13
aI1258
aI4682
aa(lp1508
I1508
aI13
aI1258
aI1248
aa(lp1509
I1509
aI13
aI8180
aI8176
aa(lp1510
I1510
aI13
aI1258
aI8180
aa(lp1511
I1511
aI13
aI1258
aI4682
aa(lp1512
I1512
aI13
aI1258
aI1248
aa(lp1513
I1513
aI13
aI4682
aI4678
aa(lp1514
I1514
aI13
aI1712
aI11144
aa(lp1515
I1515
aI13
aI1712
aI19734
aa(lp1516
I1516
aI13
aI1712
aI1722
aa(lp1517
I1517
aI13
aI11144
aI11148
aa(lp1518
I1518
aI13
aI1712
aI11144
aa(lp1519
I1519
aI13
aI1712
aI19734
aa(lp1520
I1520
aI13
aI1712
aI1722
aa(lp1521
I1521
aI13
aI1219
aI7597
aa(lp1522
I1522
aI13
aI1219
aI14911
aa(lp1523
I1523
aI13
aI1219
aI1229
aa(lp1524
I1524
aI13
aI1219
aI7597
aa(lp1525
I1525
aI13
aI1219
aI14911
aa(lp1526
I1526
aI13
aI1219
aI1229
aa(lp1527
I1527
aI13
aI14911
aI14907
aa(lp1528
I1528
aI13
aI958
aI19999
aa(lp1529
I1529
aI13
aI958
aI19787
aa(lp1530
I1530
aI13
aI958
aI968
aa(lp1531
I1531
aI13
aI19999
aI19995
aa(lp1532
I1532
aI13
aI958
aI19999
aa(lp1533
I1533
aI13
aI958
aI19787
aa(lp1534
I1534
aI13
aI958
aI968
aa(lp1535
I1535
aI13
aI19787
aI19783
aa(lp1536
I1536
aI13
aI2853
aI15123
aa(lp1537
I1537
aI13
aI2853
aI15971
aa(lp1538
I1538
aI13
aI2853
aI2843
aa(lp1539
I1539
aI13
aI15123
aI15119
aa(lp1540
I1540
aI13
aI2853
aI15123
aa(lp1541
I1541
aI13
aI2853
aI15971
aa(lp1542
I1542
aI13
aI2853
aI2843
aa(lp1543
I1543
aI13
aI15971
aI15967
aa(lp1544
I1544
aI13
aI1606
aI14907
aa(lp1545
I1545
aI13
aI1606
aI16709
aa(lp1546
I1546
aI13
aI14907
aI14911
aa(lp1547
I1547
aI13
aI1606
aI14907
aa(lp1548
I1548
aI13
aI1606
aI16709
aa(lp1549
I1549
aI13
aI16709
aI16713
aa(lp1550
I1550
aI13
aI1944
aI7964
aa(lp1551
I1551
aI13
aI1944
aI5689
aa(lp1552
I1552
aI13
aI1944
aI1954
aa(lp1553
I1553
aI13
aI7964
aI7968
aa(lp1554
I1554
aI13
aI1944
aI7964
aa(lp1555
I1555
aI13
aI1944
aI5689
aa(lp1556
I1556
aI13
aI1944
aI1954
aa(lp1557
I1557
aI13
aI5689
aI5685
aa(lp1558
I1558
aI13
aI755
aI13374
aa(lp1559
I1559
aI13
aI755
aI19946
aa(lp1560
I1560
aI13
aI13374
aI13370
aa(lp1561
I1561
aI13
aI755
aI13374
aa(lp1562
I1562
aI13
aI755
aI19946
aa(lp1563
I1563
aI13
aI1229
aI18356
aa(lp1564
I1564
aI13
aI1229
aI7275
aa(lp1565
I1565
aI13
aI1229
aI1219
aa(lp1566
I1566
aI13
aI1229
aI18356
aa(lp1567
I1567
aI13
aI1229
aI7275
aa(lp1568
I1568
aI13
aI1229
aI1219
aa(lp1569
I1569
aI13
aI2437
aI17614
aa(lp1570
I1570
aI13
aI2437
aI18939
aa(lp1571
I1571
aI13
aI17614
aI17610
aa(lp1572
I1572
aI13
aI2437
aI17614
aa(lp1573
I1573
aI13
aI2437
aI18939
aa(lp1574
I1574
aI13
aI2621
aI9872
aa(lp1575
I1575
aI13
aI2621
aI14748
aa(lp1576
I1576
aI13
aI2621
aI2611
aa(lp1577
I1577
aI13
aI2621
aI9872
aa(lp1578
I1578
aI13
aI2621
aI14748
aa(lp1579
I1579
aI13
aI2621
aI2611
aa(lp1580
I1580
aI13
aI14748
aI14752
aa(lp1581
I1581
aI13
aI301
aI18091
aa(lp1582
I1582
aI13
aI301
aI16183
aa(lp1583
I1583
aI13
aI301
aI291
aa(lp1584
I1584
aI13
aI18091
aI18087
aa(lp1585
I1585
aI13
aI301
aI18091
aa(lp1586
I1586
aI13
aI301
aI16183
aa(lp1587
I1587
aI13
aI301
aI291
aa(lp1588
I1588
aI13
aI16183
aI16179
aa(lp1589
I1589
aI13
aI320
aI4470
aa(lp1590
I1590
aI13
aI320
aI8869
aa(lp1591
I1591
aI13
aI320
aI330
aa(lp1592
I1592
aI13
aI4470
aI4466
aa(lp1593
I1593
aI13
aI320
aI4470
aa(lp1594
I1594
aI13
aI320
aI8869
aa(lp1595
I1595
aI13
aI320
aI330
aa(lp1596
I1596
aI13
aI8869
aI8865
aa(lp1597
I1597
aI13
aI1567
aI15119
aa(lp1598
I1598
aI13
aI1567
aI16868
aa(lp1599
I1599
aI13
aI1567
aI1577
aa(lp1600
I1600
aI13
aI15119
aI15123
aa(lp1601
I1601
aI13
aI1567
aI15119
aa(lp1602
I1602
aI13
aI1567
aI16868
aa(lp1603
I1603
aI13
aI1567
aI1577
aa(lp1604
I1604
aI13
aI16868
aI16872
aa(lp1605
I1605
aI13
aI2611
aI17080
aa(lp1606
I1606
aI13
aI2611
aI7063
aa(lp1607
I1607
aI13
aI2611
aI2621
aa(lp1608
I1608
aI13
aI2611
aI17080
aa(lp1609
I1609
aI13
aI2611
aI7063
aa(lp1610
I1610
aI13
aI2611
aI2621
aa(lp1611
I1611
aI13
aI7063
aI7067
aa(lp1612
I1612
aI13
aI378
aI5685
aa(lp1613
I1613
aI13
aI378
aI8388
aa(lp1614
I1614
aI13
aI378
aI388
aa(lp1615
I1615
aI13
aI5685
aI5689
aa(lp1616
I1616
aI13
aI378
aI5685
aa(lp1617
I1617
aI13
aI378
aI8388
aa(lp1618
I1618
aI13
aI378
aI388
aa(lp1619
I1619
aI13
aI1809
aI4841
aa(lp1620
I1620
aI13
aI1809
aI10724
aa(lp1621
I1621
aI13
aI1809
aI1799
aa(lp1622
I1622
aI13
aI4841
aI4837
aa(lp1623
I1623
aI13
aI1809
aI4841
aa(lp1624
I1624
aI13
aI1809
aI10724
aa(lp1625
I1625
aI13
aI1809
aI1799
aa(lp1626
I1626
aI13
aI10724
aI10720
aa(lp1627
I1627
aI13
aI1577
aI19624
aa(lp1628
I1628
aI13
aI1577
aI16978
aa(lp1629
I1629
aI13
aI1577
aI1567
aa(lp1630
I1630
aI13
aI1577
aI19624
aa(lp1631
I1631
aI13
aI1577
aI16978
aa(lp1632
I1632
aI13
aI1577
aI1567
aa(lp1633
I1633
aI13
aI2466
aI14483
aa(lp1634
I1634
aI13
aI2466
aI20158
aa(lp1635
I1635
aI13
aI2466
aI2476
aa(lp1636
I1636
aI13
aI2466
aI14483
aa(lp1637
I1637
aI13
aI2466
aI20158
aa(lp1638
I1638
aI13
aI2466
aI2476
aa(lp1639
I1639
aI13
aI20158
aI20154
aa(lp1640
I1640
aI13
aI388
aI12897
aa(lp1641
I1641
aI13
aI388
aI20472
aa(lp1642
I1642
aI13
aI388
aI378
aa(lp1643
I1643
aI13
aI12897
aI12893
aa(lp1644
I1644
aI13
aI388
aI12897
aa(lp1645
I1645
aI13
aI388
aI20472
aa(lp1646
I1646
aI13
aI388
aI378
aa(lp1647
I1647
aI13
aI20472
aI20476
aa(lp1648
I1648
aI13
aI1799
aI5526
aa(lp1649
I1649
aI13
aI1799
aI15706
aa(lp1650
I1650
aI13
aI1799
aI1809
aa(lp1651
I1651
aI13
aI5526
aI5530
aa(lp1652
I1652
aI13
aI1799
aI5526
aa(lp1653
I1653
aI13
aI1799
aI15706
aa(lp1654
I1654
aI13
aI1799
aI1809
aa(lp1655
I1655
aI13
aI784
aI5530
aa(lp1656
I1656
aI13
aI784
aI12632
aa(lp1657
I1657
aI13
aI784
aI794
aa(lp1658
I1658
aI13
aI5530
aI5526
aa(lp1659
I1659
aI13
aI784
aI5530
aa(lp1660
I1660
aI13
aI784
aI12632
aa(lp1661
I1661
aI13
aI784
aI794
aa(lp1662
I1662
aI13
aI12632
aI12628
aa(lp1663
I1663
aI13
aI794
aI8975
aa(lp1664
I1664
aI13
aI794
aI6321
aa(lp1665
I1665
aI13
aI794
aI784
aa(lp1666
I1666
aI13
aI794
aI8975
aa(lp1667
I1667
aI13
aI794
aI6321
aa(lp1668
I1668
aI13
aI794
aI784
aa(lp1669
I1669
aI13
aI6321
aI6325
aa.